; Function Attrs: nounwind uwtable
define noalias ptr @av_film_grain_params_alloc(ptr noundef writeonly captures(address_is_null) %0) local_unnamed_addr #0 {
  %2 = tail call noalias ptr @av_mallocz(i64 noundef 10848) #3
  %.not = icmp eq ptr %0, null
  br i1 %.not, label %4, label %3

3:                                                ; preds = %1
  store i64 10848, ptr %0, align 8, !tbaa !4
  br label %4

4:                                                ; preds = %3, %1
  ret ptr %2
}